target datalayout = "e-m:e-p270:32:32-p271:32:32-p272:64:64-i64:64-i128:128-f80:128-n8:16:32:64-S128"
target triple = "x86_64-pc-linux-gnu"

%struct.pmix_pointer_array_t = type { %struct.pmix_object_t, i32, i32, i32, i32, i32, ptr, ptr }
%struct.pmix_object_t = type { %union.pthread_mutex_t, ptr, i32, %struct.pmix_tma }
%union.pthread_mutex_t = type { %struct.__pthread_mutex_s }
%struct.__pthread_mutex_s = type { i32, i32, i32, i32, i32, i16, i16, %struct.__pthread_internal_list }
%struct.__pthread_internal_list = type { ptr, ptr }
%struct.pmix_tma = type { ptr, ptr, ptr, ptr, ptr, ptr, ptr, ptr }
%struct.pmix_list_item_t = type { %struct.pmix_object_t, ptr, ptr, i32 }
%struct.pmix_mca_base_framework_t = type { ptr, ptr, ptr, ptr, ptr, ptr, i32, i32, ptr, ptr, i32, i32, %struct.pmix_list_t, %struct.pmix_list_t }
%struct.pmix_list_t = type { %struct.pmix_object_t, %struct.pmix_list_item_t, i64 }

@.str.18 = private unnamed_addr constant [5 x i8] c"pmix\00", align 1
@.str.25 = private unnamed_addr constant [4 x i8] c"mca\00", align 1
@mca_types = external global %struct.pmix_pointer_array_t, align 8
@pmix_frameworks = external global [0 x ptr], align 8

; Function Attrs: nounwind uwtable
define dso_local void @pmix_info_register_types() #0 {
  %1 = alloca i32, align 4
  call void @llvm.lifetime.start.p0(i64 4, ptr %1) #13
  %2 = call i32 @pmix_pointer_array_add(ptr noundef @mca_types, ptr noundef @.str.25)
  %3 = call i32 @pmix_pointer_array_add(ptr noundef @mca_types, ptr noundef @.str.18)
  store i32 0, ptr %1, align 4, !tbaa !18
  br label %4

4:                                                ; preds = %18, %0
  %5 = load i32, ptr %1, align 4, !tbaa !18
  %6 = sext i32 %5 to i64
  %7 = getelementptr inbounds [0 x ptr], ptr @pmix_frameworks, i64 0, i64 %6
  %8 = load ptr, ptr %7, align 8, !tbaa !41
  %9 = icmp ne ptr null, %8
  br i1 %9, label %10, label %21

10:                                               ; preds = %4
  %11 = load i32, ptr %1, align 4, !tbaa !18
  %12 = sext i32 %11 to i64
  %13 = getelementptr inbounds [0 x ptr], ptr @pmix_frameworks, i64 0, i64 %12
  %14 = load ptr, ptr %13, align 8, !tbaa !41
  %15 = getelementptr inbounds nuw %struct.pmix_mca_base_framework_t, ptr %14, i32 0, i32 1
  %16 = load ptr, ptr %15, align 8, !tbaa !43
  %17 = call i32 @pmix_pointer_array_add(ptr noundef @mca_types, ptr noundef %16)
  br label %18

18:                                               ; preds = %10
  %19 = load i32, ptr %1, align 4, !tbaa !18
  %20 = add nsw i32 %19, 1
  store i32 %20, ptr %1, align 4, !tbaa !18
  br label %4, !llvm.loop !50

21:                                               ; preds = %4
  call void @llvm.lifetime.end.p0(i64 4, ptr %1) #13
  ret void
}