; Function Attrs: nounwind uwtable
define dso_local void @pmix_info_register_types() local_unnamed_addr #2 {
  %1 = tail call i32 @pmix_pointer_array_add(ptr noundef nonnull @mca_types, ptr noundef nonnull @.str.25) #17
  %2 = tail call i32 @pmix_pointer_array_add(ptr noundef nonnull @mca_types, ptr noundef nonnull @.str.18) #17
  %3 = load ptr, ptr @pmix_frameworks, align 8, !tbaa !37
  %.not4 = icmp eq ptr %3, null
  br i1 %.not4, label %._crit_edge, label %.lr.ph

.lr.ph:                                           ; preds = %0, %.lr.ph
  %indvars.iv = phi i64 [ %indvars.iv.next, %.lr.ph ], [ 0, %0 ]
  %4 = phi ptr [ %9, %.lr.ph ], [ %3, %0 ]
  %5 = getelementptr inbounds nuw i8, ptr %4, i64 8
  %6 = load ptr, ptr %5, align 8, !tbaa !43
  %7 = tail call i32 @pmix_pointer_array_add(ptr noundef nonnull @mca_types, ptr noundef %6) #17
  %indvars.iv.next = add nuw nsw i64 %indvars.iv, 1
  %8 = getelementptr inbounds nuw [0 x ptr], ptr @pmix_frameworks, i64 0, i64 %indvars.iv.next
  %9 = load ptr, ptr %8, align 8, !tbaa !37
  %.not = icmp eq ptr %9, null
  br i1 %.not, label %._crit_edge, label %.lr.ph, !llvm.loop !50

._crit_edge:                                      ; preds = %.lr.ph, %0
  ret void
}